target datalayout = "e-m:e-p270:32:32-p271:32:32-p272:64:64-i64:64-i128:128-f80:128-n8:16:32:64-S128"
target triple = "x86_64-pc-linux-gnu"

%struct.tng_trajectory = type { ptr, ptr, i64, ptr, ptr, ptr, ptr, ptr, ptr, i8, i8, ptr, ptr, ptr, ptr, ptr, ptr, ptr, ptr, ptr, i64, i64, i8, i64, i64, i64, double, i64, ptr, ptr, i64, i64, i64, i64, i64, %struct.tng_trajectory_frame_set, i64, i64, i64, i32, ptr, i32, ptr, ptr, ptr, double }
%struct.tng_trajectory_frame_set = type { i64, ptr, i64, i64, i64, i64, ptr, i64, i64, i64, i64, i64, i64, i64, double, i32, ptr, i32, ptr }

; Function Attrs: nounwind uwtable
define i32 @tng_output_file_endianness_get(ptr noundef %0, ptr noundef %1) #0 {
  %3 = alloca i32, align 4
  %4 = alloca ptr, align 8
  %5 = alloca ptr, align 8
  %6 = alloca i32, align 4
  %7 = alloca i32, align 4
  %8 = alloca i32, align 4
  store ptr %0, ptr %4, align 8, !tbaa !3
  store ptr %1, ptr %5, align 8, !tbaa !225
  call void @llvm.lifetime.start.p0(i64 4, ptr %6) #11
  call void @llvm.lifetime.start.p0(i64 4, ptr %7) #11
  %9 = load ptr, ptr %4, align 8, !tbaa !3
  %10 = getelementptr inbounds nuw %struct.tng_trajectory, ptr %9, i32 0, i32 7
  %11 = load ptr, ptr %10, align 8, !tbaa !188
  %12 = icmp ne ptr %11, null
  br i1 %12, label %13, label %28

13:                                               ; preds = %2
  %14 = load ptr, ptr %4, align 8, !tbaa !3
  %15 = getelementptr inbounds nuw %struct.tng_trajectory, ptr %14, i32 0, i32 7
  %16 = load ptr, ptr %15, align 8, !tbaa !188
  %17 = icmp eq ptr %16, @tng_swap_byte_order_big_endian_32
  br i1 %17, label %18, label %19

18:                                               ; preds = %13
  store i32 0, ptr %6, align 4, !tbaa !20
  br label %27

19:                                               ; preds = %13
  %20 = load ptr, ptr %4, align 8, !tbaa !3
  %21 = getelementptr inbounds nuw %struct.tng_trajectory, ptr %20, i32 0, i32 7
  %22 = load ptr, ptr %21, align 8, !tbaa !188
  %23 = icmp eq ptr %22, @tng_swap_byte_order_little_endian_32
  br i1 %23, label %24, label %25

24:                                               ; preds = %19
  store i32 1, ptr %6, align 4, !tbaa !20
  br label %26

25:                                               ; preds = %19
  store i32 1, ptr %3, align 4
  store i32 1, ptr %8, align 4
  br label %76

26:                                               ; preds = %24
  br label %27

27:                                               ; preds = %26, %18
  br label %33

28:                                               ; preds = %2
  %29 = load ptr, ptr %4, align 8, !tbaa !3
  %30 = getelementptr inbounds nuw %struct.tng_trajectory, ptr %29, i32 0, i32 9
  %31 = load i8, ptr %30, align 8, !tbaa !184
  %32 = sext i8 %31 to i32
  store i32 %32, ptr %6, align 4, !tbaa !20
  br label %33

33:                                               ; preds = %28, %27
  %34 = load ptr, ptr %4, align 8, !tbaa !3
  %35 = getelementptr inbounds nuw %struct.tng_trajectory, ptr %34, i32 0, i32 8
  %36 = load ptr, ptr %35, align 8, !tbaa !189
  %37 = icmp ne ptr %36, null
  br i1 %37, label %38, label %53

38:                                               ; preds = %33
  %39 = load ptr, ptr %4, align 8, !tbaa !3
  %40 = getelementptr inbounds nuw %struct.tng_trajectory, ptr %39, i32 0, i32 8
  %41 = load ptr, ptr %40, align 8, !tbaa !189
  %42 = icmp eq ptr %41, @tng_swap_byte_order_big_endian_64
  br i1 %42, label %43, label %44

43:                                               ; preds = %38
  store i32 0, ptr %7, align 4, !tbaa !20
  br label %52

44:                                               ; preds = %38
  %45 = load ptr, ptr %4, align 8, !tbaa !3
  %46 = getelementptr inbounds nuw %struct.tng_trajectory, ptr %45, i32 0, i32 8
  %47 = load ptr, ptr %46, align 8, !tbaa !189
  %48 = icmp eq ptr %47, @tng_swap_byte_order_little_endian_64
  br i1 %48, label %49, label %50

49:                                               ; preds = %44
  store i32 1, ptr %7, align 4, !tbaa !20
  br label %51

50:                                               ; preds = %44
  store i32 1, ptr %3, align 4
  store i32 1, ptr %8, align 4
  br label %76

51:                                               ; preds = %49
  br label %52

52:                                               ; preds = %51, %43
  br label %58

53:                                               ; preds = %33
  %54 = load ptr, ptr %4, align 8, !tbaa !3
  %55 = getelementptr inbounds nuw %struct.tng_trajectory, ptr %54, i32 0, i32 10
  %56 = load i8, ptr %55, align 1, !tbaa !185
  %57 = sext i8 %56 to i32
  store i32 %57, ptr %7, align 4, !tbaa !20
  br label %58

58:                                               ; preds = %53, %52
  %59 = load i32, ptr %6, align 4, !tbaa !20
  %60 = load i32, ptr %7, align 4, !tbaa !20
  %61 = icmp ne i32 %59, %60
  br i1 %61, label %62, label %63

62:                                               ; preds = %58
  store i32 1, ptr %3, align 4
  store i32 1, ptr %8, align 4
  br label %76

63:                                               ; preds = %58
  %64 = load i32, ptr %6, align 4, !tbaa !20
  %65 = icmp eq i32 %64, 1
  br i1 %65, label %66, label %68

66:                                               ; preds = %63
  %67 = load ptr, ptr %5, align 8, !tbaa !225
  store i32 1, ptr %67, align 4, !tbaa !20
  br label %75

68:                                               ; preds = %63
  %69 = load i32, ptr %6, align 4, !tbaa !20
  %70 = icmp eq i32 %69, 0
  br i1 %70, label %71, label %73

71:                                               ; preds = %68
  %72 = load ptr, ptr %5, align 8, !tbaa !225
  store i32 0, ptr %72, align 4, !tbaa !20
  br label %74

73:                                               ; preds = %68
  store i32 1, ptr %3, align 4
  store i32 1, ptr %8, align 4
  br label %76

74:                                               ; preds = %71
  br label %75

75:                                               ; preds = %74, %66
  store i32 0, ptr %3, align 4
  store i32 1, ptr %8, align 4
  br label %76

76:                                               ; preds = %75, %73, %62, %50, %25
  call void @llvm.lifetime.end.p0(i64 4, ptr %7) #11
  call void @llvm.lifetime.end.p0(i64 4, ptr %6) #11
  %77 = load i32, ptr %3, align 4
  ret i32 %77
}