; Function Attrs: mustprogress nofree norecurse nosync nounwind willreturn memory(argmem: readwrite) uwtable
define range(i32 0, 2) i32 @tng_output_file_endianness_get(ptr noundef readonly captures(none) %0, ptr noundef writeonly captures(none) %1) local_unnamed_addr #0 {
  %3 = getelementptr inbounds nuw i8, ptr %0, i64 56
  %4 = load ptr, ptr %3, align 8, !tbaa !199
  %.not = icmp eq ptr %4, null
  br i1 %.not, label %9, label %5

5:                                                ; preds = %2
  %6 = icmp eq ptr %4, @tng_swap_byte_order_big_endian_32
  br i1 %6, label %13, label %7

7:                                                ; preds = %5
  %8 = icmp eq ptr %4, @tng_swap_byte_order_little_endian_32
  br i1 %8, label %13, label %26

9:                                                ; preds = %2
  %10 = getelementptr inbounds nuw i8, ptr %0, i64 72
  %11 = load i8, ptr %10, align 8, !tbaa !134
  %12 = sext i8 %11 to i32
  br label %13

13:                                               ; preds = %7, %5, %9
  %.014 = phi i32 [ %12, %9 ], [ 0, %5 ], [ 1, %7 ]
  %14 = getelementptr inbounds nuw i8, ptr %0, i64 64
  %15 = load ptr, ptr %14, align 8, !tbaa !200
  %.not18 = icmp eq ptr %15, null
  br i1 %.not18, label %20, label %16

16:                                               ; preds = %13
  %17 = icmp eq ptr %15, @tng_swap_byte_order_big_endian_64
  br i1 %17, label %24, label %18

18:                                               ; preds = %16
  %19 = icmp eq ptr %15, @tng_swap_byte_order_little_endian_64
  br i1 %19, label %24, label %26

20:                                               ; preds = %13
  %21 = getelementptr inbounds nuw i8, ptr %0, i64 73
  %22 = load i8, ptr %21, align 1, !tbaa !135
  %23 = sext i8 %22 to i32
  br label %24

24:                                               ; preds = %18, %16, %20
  %.0 = phi i32 [ %23, %20 ], [ 0, %16 ], [ 1, %18 ]
  %.not19 = icmp eq i32 %.014, %.0
  %switch = icmp ult i32 %.014, 2
  %or.cond = and i1 %switch, %.not19
  br i1 %or.cond, label %25, label %26

25:                                               ; preds = %24
  store i32 %.014, ptr %1, align 4, !tbaa !17
  br label %26

26:                                               ; preds = %24, %18, %7, %25
  %.015 = phi i32 [ 0, %25 ], [ 1, %7 ], [ 1, %18 ], [ 1, %24 ]
  ret i32 %.015
}